target datalayout = "e-m:e-p270:32:32-p271:32:32-p272:64:64-i64:64-i128:128-f80:128-n8:16:32:64-S128"
target triple = "x86_64-pc-linux-gnu"

%struct._zend_stack = type { i32, i32, i32, ptr }

; Function Attrs: nounwind uwtable
define void @zend_stack_clean(ptr noundef %0, ptr noundef %1, i1 noundef zeroext %2) #0 {
  %4 = alloca ptr, align 8
  %5 = alloca ptr, align 8
  %6 = alloca i8, align 1
  %7 = alloca i32, align 4
  store ptr %0, ptr %4, align 8
  store ptr %1, ptr %5, align 8
  %8 = zext i1 %2 to i8
  store i8 %8, ptr %6, align 1
  %9 = load ptr, ptr %5, align 8
  %10 = icmp ne ptr %9, null
  br i1 %10, label %11, label %34

11:                                               ; preds = %3
  store i32 0, ptr %7, align 4
  br label %12

12:                                               ; preds = %30, %11
  %13 = load i32, ptr %7, align 4
  %14 = load ptr, ptr %4, align 8
  %15 = getelementptr inbounds %struct._zend_stack, ptr %14, i32 0, i32 1
  %16 = load i32, ptr %15, align 4
  %17 = icmp slt i32 %13, %16
  br i1 %17, label %18, label %33

18:                                               ; preds = %12
  %19 = load ptr, ptr %5, align 8
  %20 = load ptr, ptr %4, align 8
  %21 = getelementptr inbounds %struct._zend_stack, ptr %20, i32 0, i32 3
  %22 = load ptr, ptr %21, align 8
  %23 = load ptr, ptr %4, align 8
  %24 = getelementptr inbounds %struct._zend_stack, ptr %23, i32 0, i32 0
  %25 = load i32, ptr %24, align 8
  %26 = load i32, ptr %7, align 4
  %27 = mul nsw i32 %25, %26
  %28 = sext i32 %27 to i64
  %29 = getelementptr inbounds i8, ptr %22, i64 %28
  call void %19(ptr noundef %29)
  br label %30

30:                                               ; preds = %18
  %31 = load i32, ptr %7, align 4
  %32 = add nsw i32 %31, 1
  store i32 %32, ptr %7, align 4
  br label %12

33:                                               ; preds = %12
  br label %34

34:                                               ; preds = %33, %3
  %35 = load i8, ptr %6, align 1
  %36 = trunc i8 %35 to i1
  br i1 %36, label %37, label %53

37:                                               ; preds = %34
  %38 = load ptr, ptr %4, align 8
  %39 = getelementptr inbounds %struct._zend_stack, ptr %38, i32 0, i32 3
  %40 = load ptr, ptr %39, align 8
  %41 = icmp ne ptr %40, null
  br i1 %41, label %42, label %48

42:                                               ; preds = %37
  %43 = load ptr, ptr %4, align 8
  %44 = getelementptr inbounds %struct._zend_stack, ptr %43, i32 0, i32 3
  %45 = load ptr, ptr %44, align 8
  call void @_efree(ptr noundef %45)
  %46 = load ptr, ptr %4, align 8
  %47 = getelementptr inbounds %struct._zend_stack, ptr %46, i32 0, i32 3
  store ptr null, ptr %47, align 8
  br label %48

48:                                               ; preds = %42, %37
  %49 = load ptr, ptr %4, align 8
  %50 = getelementptr inbounds %struct._zend_stack, ptr %49, i32 0, i32 2
  store i32 0, ptr %50, align 8
  %51 = load ptr, ptr %4, align 8
  %52 = getelementptr inbounds %struct._zend_stack, ptr %51, i32 0, i32 1
  store i32 0, ptr %52, align 4
  br label %53

53:                                               ; preds = %48, %34
  ret void
}