; Function Attrs: nounwind uwtable
define void @zend_stack_clean(ptr nocapture noundef %0, ptr noundef readonly %1, i1 noundef zeroext %2) local_unnamed_addr #1 {
  %.not = icmp eq ptr %1, null
  br i1 %.not, label %.loopexit, label %.preheader

.preheader:                                       ; preds = %3
  %4 = getelementptr inbounds i8, ptr %0, i64 4
  %5 = load i32, ptr %4, align 4
  %6 = icmp sgt i32 %5, 0
  br i1 %6, label %.lr.ph, label %.loopexit

.lr.ph:                                           ; preds = %.preheader
  %7 = getelementptr inbounds i8, ptr %0, i64 16
  br label %8

8:                                                ; preds = %.lr.ph, %8
  %.016 = phi i32 [ 0, %.lr.ph ], [ %14, %8 ]
  %9 = load ptr, ptr %7, align 8
  %10 = load i32, ptr %0, align 8
  %11 = mul nsw i32 %10, %.016
  %12 = sext i32 %11 to i64
  %13 = getelementptr inbounds i8, ptr %9, i64 %12
  tail call void %1(ptr noundef %13) #7
  %14 = add nuw nsw i32 %.016, 1
  %15 = load i32, ptr %4, align 4
  %16 = icmp slt i32 %14, %15
  br i1 %16, label %8, label %.loopexit

.loopexit:                                        ; preds = %8, %.preheader, %3
  br i1 %2, label %17, label %24

17:                                               ; preds = %.loopexit
  %18 = getelementptr inbounds i8, ptr %0, i64 16
  %19 = load ptr, ptr %18, align 8
  %.not15 = icmp eq ptr %19, null
  br i1 %.not15, label %21, label %20

20:                                               ; preds = %17
  tail call void @_efree(ptr noundef nonnull %19) #7
  store ptr null, ptr %18, align 8
  br label %21

21:                                               ; preds = %20, %17
  %22 = getelementptr inbounds i8, ptr %0, i64 8
  store i32 0, ptr %22, align 8
  %23 = getelementptr inbounds i8, ptr %0, i64 4
  store i32 0, ptr %23, align 4
  br label %24

24:                                               ; preds = %21, %.loopexit
  ret void
}